target datalayout = "e-m:e-p270:32:32-p271:32:32-p272:64:64-i64:64-i128:128-f80:128-n8:16:32:64-S128"
target triple = "x86_64-pc-linux-gnu"

%struct.reassembly_table = type { ptr, ptr, ptr, ptr, ptr }
%struct.reassembly_table_functions = type { ptr, ptr, ptr, ptr, ptr, ptr }

@.str.262 = private unnamed_addr constant [18 x i8] c"PPI Packet Header\00", align 1
@.str.263 = private unnamed_addr constant [4 x i8] c"PPI\00", align 1
@.str.264 = private unnamed_addr constant [4 x i8] c"ppi\00", align 1
@proto_ppi = internal global i32 0, align 4
@ppi_handle = internal global ptr null, align 8
@ampdu_reassembly_table = internal global %struct.reassembly_table zeroinitializer, align 8
@addresses_reassembly_table_functions = external constant %struct.reassembly_table_functions, align 8
@.str.265 = private unnamed_addr constant [11 x i8] c"reassemble\00", align 1
@.str.266 = private unnamed_addr constant [37 x i8] c"Reassemble fragmented 802.11 A-MPDUs\00", align 1
@.str.267 = private unnamed_addr constant [65 x i8] c"Whether fragmented 802.11 aggregated MPDUs should be reassembled\00", align 1
@ppi_ampdu_reassemble = internal global i8 1, align 1

; Function Attrs: null_pointer_is_valid sspstrong uwtable
define hidden void @proto_register_ppi() #0 {
  %1 = alloca ptr, align 8
  %2 = alloca ptr, align 8
  call void @llvm.lifetime.start.p0(i64 8, ptr %1) #8
  call void @llvm.lifetime.start.p0(i64 8, ptr %2) #8
  %3 = call i32 @proto_register_protocol(ptr noundef @.str.262, ptr noundef @.str.263, ptr noundef @.str.264)
  store i32 %3, ptr @proto_ppi, align 4
  %4 = load i32, ptr @proto_ppi, align 4
  call void @proto_register_field_array(i32 noundef %4, ptr noundef @proto_register_ppi.hf, i32 noundef 93)
  call void @proto_register_subtree_array(ptr noundef @proto_register_ppi.ett, i32 noundef 16)
  %5 = load i32, ptr @proto_ppi, align 4
  %6 = call ptr @expert_register_protocol(i32 noundef %5)
  store ptr %6, ptr %2, align 8
  %7 = load ptr, ptr %2, align 8
  call void @expert_register_field_array(ptr noundef %7, ptr noundef @proto_register_ppi.ei, i32 noundef 1)
  %8 = load i32, ptr @proto_ppi, align 4
  %9 = call ptr @register_dissector(ptr noundef @.str.264, ptr noundef @dissect_ppi, i32 noundef %8)
  store ptr %9, ptr @ppi_handle, align 8
  call void @register_capture_dissector_table(ptr noundef @.str.264, ptr noundef @.str.263)
  call void @reassembly_table_register(ptr noundef @ampdu_reassembly_table, ptr noundef @addresses_reassembly_table_functions)
  %10 = load i32, ptr @proto_ppi, align 4
  %11 = call ptr @prefs_register_protocol(i32 noundef %10, ptr noundef null)
  store ptr %11, ptr %1, align 8
  %12 = load ptr, ptr %1, align 8
  call void @prefs_register_bool_preference(ptr noundef %12, ptr noundef @.str.265, ptr noundef @.str.266, ptr noundef @.str.267, ptr noundef @ppi_ampdu_reassemble)
  call void @llvm.lifetime.end.p0(i64 8, ptr %2) #8
  call void @llvm.lifetime.end.p0(i64 8, ptr %1) #8
  ret void
}