; Function Attrs: null_pointer_is_valid sspstrong uwtable
define hidden void @proto_register_ppi() local_unnamed_addr #0 {
  %1 = tail call i32 @proto_register_protocol(ptr noundef nonnull @.str.262, ptr noundef nonnull @.str.263, ptr noundef nonnull @.str.264)
  store i32 %1, ptr @proto_ppi, align 4
  tail call void @proto_register_field_array(i32 noundef %1, ptr noundef nonnull @proto_register_ppi.hf, i32 noundef 93)
  tail call void @proto_register_subtree_array(ptr noundef nonnull @proto_register_ppi.ett, i32 noundef 16)
  %2 = load i32, ptr @proto_ppi, align 4
  %3 = tail call ptr @expert_register_protocol(i32 noundef %2)
  tail call void @expert_register_field_array(ptr noundef %3, ptr noundef nonnull @proto_register_ppi.ei, i32 noundef 1)
  %4 = load i32, ptr @proto_ppi, align 4
  %5 = tail call ptr @register_dissector(ptr noundef nonnull @.str.264, ptr noundef nonnull @dissect_ppi, i32 noundef %4)
  store ptr %5, ptr @ppi_handle, align 8
  tail call void @register_capture_dissector_table(ptr noundef nonnull @.str.264, ptr noundef nonnull @.str.263)
  tail call void @reassembly_table_register(ptr noundef nonnull @ampdu_reassembly_table, ptr noundef nonnull @addresses_reassembly_table_functions)
  %6 = load i32, ptr @proto_ppi, align 4
  %7 = tail call ptr @prefs_register_protocol(i32 noundef %6, ptr noundef null)
  tail call void @prefs_register_bool_preference(ptr noundef %7, ptr noundef nonnull @.str.265, ptr noundef nonnull @.str.266, ptr noundef nonnull @.str.267, ptr noundef nonnull @ppi_ampdu_reassemble)
  ret void
}